; ModuleID = '45/2698.c'
source_filename = "45/2698.c"
target datalayout = "e-m:e-p270:32:32-p271:32:32-p272:64:64-i64:64-f80:128-n8:16:32:64-S128"
target triple = "x86_64-pc-linux-gnu"

@.str = private unnamed_addr constant [3 x i8] c"%s\00", align 1
@.str.1 = private unnamed_addr constant [3 x i8] c"%d\00", align 1

; Function Attrs: noinline nounwind uwtable
define dso_local i32 @compare(i8* %0, i8* %1, i32 %2) #0 {
  %4 = alloca i32, align 4
  %5 = alloca i8*, align 8
  %6 = alloca i8*, align 8
  %7 = alloca i32, align 4
  %8 = alloca i32, align 4
  %9 = alloca i32, align 4
  %10 = alloca i64, align 8
  store i8* %0, i8** %5, align 8
  store i8* %1, i8** %6, align 8
  store i32 %2, i32* %7, align 4
  store i32 1, i32* %9, align 4
  %11 = load i8*, i8** %5, align 8
  %12 = call i64 @strlen(i8* %11) #3
  store i64 %12, i64* %10, align 8
  store i32 0, i32* %8, align 4
  br label %13

13:                                               ; preds = %36, %3
  %14 = load i32, i32* %8, align 4
  %15 = sext i32 %14 to i64
  %16 = load i64, i64* %10, align 8
  %17 = icmp slt i64 %15, %16
  br i1 %17, label %18, label %39

18:                                               ; preds = %13
  %19 = load i8*, i8** %5, align 8
  %20 = load i32, i32* %8, align 4
  %21 = sext i32 %20 to i64
  %22 = getelementptr inbounds i8, i8* %19, i64 %21
  %23 = load i8, i8* %22, align 1
  %24 = sext i8 %23 to i32
  %25 = load i8*, i8** %6, align 8
  %26 = load i32, i32* %7, align 4
  %27 = load i32, i32* %8, align 4
  %28 = add nsw i32 %26, %27
  %29 = sext i32 %28 to i64
  %30 = getelementptr inbounds i8, i8* %25, i64 %29
  %31 = load i8, i8* %30, align 1
  %32 = sext i8 %31 to i32
  %33 = icmp ne i32 %24, %32
  br i1 %33, label %34, label %35

34:                                               ; preds = %18
  store i32 0, i32* %9, align 4
  br label %39

35:                                               ; preds = %18
  br label %36

36:                                               ; preds = %35
  %37 = load i32, i32* %8, align 4
  %38 = add nsw i32 %37, 1
  store i32 %38, i32* %8, align 4
  br label %13

39:                                               ; preds = %34, %13
  %40 = load i32, i32* %9, align 4
  %41 = icmp eq i32 %40, 0
  br i1 %41, label %42, label %43

42:                                               ; preds = %39
  store i32 0, i32* %4, align 4
  br label %44

43:                                               ; preds = %39
  store i32 1, i32* %4, align 4
  br label %44

44:                                               ; preds = %43, %42
  %45 = load i32, i32* %4, align 4
  ret i32 %45
}

; Function Attrs: nounwind readonly
declare dso_local i64 @strlen(i8*) #1

; Function Attrs: noinline nounwind uwtable
define dso_local i32 @main() #0 {
  %1 = alloca i32, align 4
  %2 = alloca [50 x i8], align 16
  %3 = alloca [50 x i8], align 16
  %4 = alloca i32, align 4
  %5 = alloca i64, align 8
  store i32 0, i32* %1, align 4
  %6 = getelementptr inbounds [50 x i8], [50 x i8]* %2, i64 0, i64 0
  %7 = call i32 (i8*, ...) @__isoc99_scanf(i8* getelementptr inbounds ([3 x i8], [3 x i8]* @.str, i64 0, i64 0), i8* %6)
  %8 = getelementptr inbounds [50 x i8], [50 x i8]* %3, i64 0, i64 0
  %9 = call i32 (i8*, ...) @__isoc99_scanf(i8* getelementptr inbounds ([3 x i8], [3 x i8]* @.str, i64 0, i64 0), i8* %8)
  %10 = getelementptr inbounds [50 x i8], [50 x i8]* %3, i64 0, i64 0
  %11 = call i64 @strlen(i8* %10) #3
  store i64 %11, i64* %5, align 8
  store i32 0, i32* %4, align 4
  br label %12

12:                                               ; preds = %38, %0
  %13 = load i32, i32* %4, align 4
  %14 = sext i32 %13 to i64
  %15 = load i64, i64* %5, align 8
  %16 = icmp slt i64 %14, %15
  br i1 %16, label %17, label %41

17:                                               ; preds = %12
  %18 = getelementptr inbounds [50 x i8], [50 x i8]* %2, i64 0, i64 0
  %19 = load i8, i8* %18, align 16
  %20 = sext i8 %19 to i32
  %21 = load i32, i32* %4, align 4
  %22 = sext i32 %21 to i64
  %23 = getelementptr inbounds [50 x i8], [50 x i8]* %3, i64 0, i64 %22
  %24 = load i8, i8* %23, align 1
  %25 = sext i8 %24 to i32
  %26 = icmp eq i32 %20, %25
  br i1 %26, label %27, label %37

27:                                               ; preds = %17
  %28 = getelementptr inbounds [50 x i8], [50 x i8]* %2, i64 0, i64 0
  %29 = getelementptr inbounds [50 x i8], [50 x i8]* %3, i64 0, i64 0
  %30 = load i32, i32* %4, align 4
  %31 = call i32 @compare(i8* %28, i8* %29, i32 %30)
  %32 = icmp eq i32 %31, 1
  br i1 %32, label %33, label %36

33:                                               ; preds = %27
  %34 = load i32, i32* %4, align 4
  %35 = call i32 (i8*, ...) @printf(i8* getelementptr inbounds ([3 x i8], [3 x i8]* @.str.1, i64 0, i64 0), i32 %34)
  br label %41

36:                                               ; preds = %27
  br label %37

37:                                               ; preds = %36, %17
  br label %38

38:                                               ; preds = %37
  %39 = load i32, i32* %4, align 4
  %40 = add nsw i32 %39, 1
  store i32 %40, i32* %4, align 4
  br label %12

41:                                               ; preds = %33, %12
  %42 = load i32, i32* %1, align 4
  ret i32 %42
}

declare dso_local i32 @__isoc99_scanf(i8*, ...) #2

declare dso_local i32 @printf(i8*, ...) #2


!llvm.module.flags = !{!0}
!llvm.ident = !{!1}

!0 = !{i32 1, !"wchar_size", i32 4}
!1 = !{!"clang version 10.0.0-4ubuntu1 "}
